Certificate:
    Data:
        Version: 3 (0x2)
        Serial Number: 4100 (0x1004)
    Signature Algorithm: sha256WithRSAEncryption
        Issuer: C=SG, ST=Singapore, L=Singapore, O=SUTD, OU=lab4, CN=sutd.edu.sg/emailAddress=sutd@edu.sg
        Validity
            Not Before: Feb 28 12:48:08 2021 GMT
            Not After : Feb 28 12:48:08 2022 GMT
        Subject: C=US, ST=California, L=San Diego, O=FB, OU=Cyber, CN=facebook.com
        Subject Public Key Info:
            Public Key Algorithm: rsaEncryption
                Public-Key: (1024 bit)
                Modulus:
                    00:b4:dd:1a:6d:c7:2e:a7:56:49:6c:61:03:13:d7:
                    c8:4f:a2:82:1d:ee:07:d3:75:18:d9:fd:05:43:eb:
                    79:b9:db:ea:55:85:ea:a4:ff:b7:72:b3:a6:d9:2c:
                    ee:f0:07:08:31:66:6b:0c:69:ca:50:3b:7f:aa:e4:
                    b5:5f:f0:ed:58:b9:fa:b8:8d:6c:3b:95:74:28:3d:
                    75:d3:41:86:01:f8:cc:ce:51:fe:0d:a6:28:64:2d:
                    ce:ad:b2:fd:c8:77:cf:d4:4e:a8:93:e4:62:5c:92:
                    5b:71:74:5f:31:0d:8e:47:f4:e4:62:4a:47:39:f7:
                    88:0f:27:68:b7:69:c7:6c:a5
                Exponent: 65537 (0x10001)
        X509v3 extensions:
            X509v3 Basic Constraints: 
                CA:FALSE
            Netscape Comment: 
                OpenSSL Generated Certificate
            X509v3 Subject Key Identifier: 
                AE:39:C7:A2:8C:75:3C:1F:A4:A2:5E:30:C2:3C:D2:41:FB:29:E2:97
            X509v3 Authority Key Identifier: 
                keyid:56:08:3B:C5:F1:71:1C:5C:91:6F:01:CA:F4:0E:4D:7F:60:0A:5F:97

    Signature Algorithm: sha256WithRSAEncryption
         51:38:9f:df:bb:ec:e4:9e:37:67:49:14:90:33:be:c6:18:aa:
         94:1a:0d:ac:0e:be:8e:03:57:07:41:1b:8a:1b:5a:8a:73:ba:
         f0:44:9e:26:12:aa:f2:43:fa:8a:7f:6f:fc:44:d5:0e:da:25:
         97:46:2c:87:02:2f:c0:89:b7:46:f8:7c:6b:e5:37:8c:4d:63:
         3b:73:0e:f6:d8:9d:40:07:42:f7:c7:a5:a8:c2:43:4e:24:1d:
         4c:a2:f0:23:6a:d6:e0:ac:36:ad:f6:c0:8e:54:f5:20:ef:dc:
         84:45:7b:f7:cf:b4:5a:6d:e4:79:47:4e:a7:44:56:78:ee:1a:
         71:a1:8e:fc:e0:3c:73:99:42:3a:63:12:e8:8f:44:95:ed:51:
         4a:48:f5:06:7b:d3:8f:39:9c:f4:5e:cb:81:39:b1:75:6f:75:
         10:ff:09:4e:69:72:9a:36:7b:7d:3e:03:bd:74:fa:7a:c5:16:
         86:75:68:78:ad:1a:be:18:0b:94:68:18:93:ca:80:d1:20:99:
         fc:de:65:cf:85:2d:c7:d5:fd:70:5c:ff:33:4d:cc:d6:23:34:
         87:a7:09:1f:65:8f:e9:4f:1f:8a:b8:28:f4:3f:50:15:d5:44:
         bf:c3:0d:f1:51:5e:1a:a8:71:19:dc:f0:6c:5a:a2:80:9a:42:
         10:0f:b1:f4
-----BEGIN CERTIFICATE-----
MIIDYzCCAkugAwIBAgICEAQwDQYJKoZIhvcNAQELBQAwgYUxCzAJBgNVBAYTAlNH
MRIwEAYDVQQIDAlTaW5nYXBvcmUxEjAQBgNVBAcMCVNpbmdhcG9yZTENMAsGA1UE
CgwEU1VURDENMAsGA1UECwwEbGFiNDEUMBIGA1UEAwwLc3V0ZC5lZHUuc2cxGjAY
BgkqhkiG9w0BCQEWC3N1dGRAZWR1LnNnMB4XDTIxMDIyODEyNDgwOFoXDTIyMDIy
ODEyNDgwOFowajELMAkGA1UEBhMCVVMxEzARBgNVBAgMCkNhbGlmb3JuaWExEjAQ
BgNVBAcMCVNhbiBEaWVnbzELMAkGA1UECgwCRkIxDjAMBgNVBAsMBUN5YmVyMRUw
EwYDVQQDDAxmYWNlYm9vay5jb20wgZ8wDQYJKoZIhvcNAQEBBQADgY0AMIGJAoGB
ALTdGm3HLqdWSWxhAxPXyE+igh3uB9N1GNn9BUPrebnb6lWF6qT/t3Kzptks7vAH
CDFmawxpylA7f6rktV/w7Vi5+riNbDuVdCg9ddNBhgH4zM5R/g2mKGQtzq2y/ch3
z9ROqJPkYlySW3F0XzENjkf05GJKRzn3iA8naLdpx2ylAgMBAAGjezB5MAkGA1Ud
EwQCMAAwLAYJYIZIAYb4QgENBB8WHU9wZW5TU0wgR2VuZXJhdGVkIENlcnRpZmlj
YXRlMB0GA1UdDgQWBBSuOceijHU8H6SiXjDCPNJB+ynilzAfBgNVHSMEGDAWgBRW
CDvF8XEcXJFvAcr0Dk1/YApflzANBgkqhkiG9w0BAQsFAAOCAQEAUTif37vs5J43
Z0kUkDO+xhiqlBoNrA6+jgNXB0EbihtainO68ESeJhKq8kP6in9v/ETVDtoll0Ys
hwIvwIm3Rvh8a+U3jE1jO3MO9tidQAdC98elqMJDTiQdTKLwI2rW4Kw2rfbAjlT1
IO/chEV798+0Wm3keUdOp0RWeO4acaGO/OA8c5lCOmMS6I9Ele1RSkj1BnvTjzmc
9F7LgTmxdW91EP8JTmlymjZ7fT4DvXT6esUWhnVoeK0avhgLlGgYk8qA0SCZ/N5l
z4Utx9X9cFz/M03M1iM0h6cJH2WP6U8firgo9D9QFdVEv8MN8VFeGqhxGdzwbFqi
gJpCEA+x9A==
-----END CERTIFICATE-----
