Certificate:
    Data:
        Version: 3 (0x2)
        Serial Number: 4098 (0x1002)
    Signature Algorithm: sha256WithRSAEncryption
        Issuer: C=SG, ST=Singapore, L=Singapore, O=SUTD, OU=lab4, CN=sutd.edu.sg/emailAddress=sutd@edu.sg
        Validity
            Not Before: Feb 28 03:21:54 2021 GMT
            Not After : Feb 28 03:21:54 2022 GMT
        Subject: C=SG, L=Singapore, O=seedpki, OU=lab4, CN=SEEDPKILab2020.com/emailAddress=SEEDPKILab2020@edu.sg
        Subject Public Key Info:
            Public Key Algorithm: rsaEncryption
                Public-Key: (1024 bit)
                Modulus:
                    00:f1:35:ca:6c:8f:9e:f0:1e:c4:7f:9b:e1:21:82:
                    bd:1d:4c:52:30:2e:f3:e8:74:84:5d:08:1f:9e:dd:
                    9b:2a:88:a9:91:0c:d2:35:6c:0d:a8:51:c1:95:d7:
                    e8:9e:d7:93:2d:fe:d7:07:36:00:90:a0:c4:00:27:
                    bb:3c:88:3c:82:71:d2:cb:5a:b7:4c:80:4f:b0:64:
                    a0:af:23:29:1e:c7:d1:35:f7:04:c4:13:8e:f1:34:
                    48:3d:aa:3d:8e:f2:e8:25:8c:42:aa:0d:f9:90:87:
                    e0:89:85:c7:45:7f:b5:89:d2:58:27:a4:d2:19:98:
                    f7:54:2a:d0:a0:65:01:5f:2b
                Exponent: 65537 (0x10001)
        X509v3 extensions:
            X509v3 Basic Constraints: 
                CA:FALSE
            Netscape Comment: 
                OpenSSL Generated Certificate
            X509v3 Subject Key Identifier: 
                F6:C5:D7:A8:DB:F4:B5:D8:0A:B4:B6:B4:EE:4E:DC:EA:02:AE:22:B0
            X509v3 Authority Key Identifier: 
                keyid:56:08:3B:C5:F1:71:1C:5C:91:6F:01:CA:F4:0E:4D:7F:60:0A:5F:97

    Signature Algorithm: sha256WithRSAEncryption
         98:ac:03:d3:b5:66:12:e4:ef:3f:3e:3c:26:46:b2:d2:74:6c:
         85:dc:53:bf:b8:d4:18:01:b9:d2:6b:a6:84:bc:5f:f7:b5:ad:
         9c:80:9c:07:de:84:94:ad:fd:10:5e:be:ce:32:8b:6a:4a:af:
         e0:88:a5:6e:ce:9b:57:10:98:e2:c5:f1:38:77:8f:0e:11:cd:
         98:c9:ad:b1:bd:c6:3f:f2:5e:c8:26:d6:ff:91:1b:d7:ae:c9:
         30:7b:1d:f7:7d:f2:d7:e1:1b:a1:87:6c:39:83:16:4b:ca:23:
         01:79:7b:7a:21:13:58:50:ca:10:05:f1:0e:cf:02:dc:01:10:
         26:44:e7:40:15:f0:d2:fd:11:92:56:60:de:3e:91:85:ec:d0:
         ae:be:90:9a:9e:a7:80:4e:95:0a:3c:66:59:ae:3f:da:e2:49:
         4e:ee:a3:d8:94:52:13:8b:47:ea:78:8c:14:a3:f7:75:d2:8f:
         94:c3:49:59:8e:ed:1d:ee:da:f5:70:71:3a:1f:18:af:c7:b8:
         93:ec:a8:02:c3:1b:21:5c:70:0a:b8:49:8c:a5:39:c1:9f:34:
         f9:82:cc:9d:6e:1f:34:23:fc:d4:16:35:ce:b3:6e:a6:c0:fb:
         d1:e3:b8:d2:47:72:5b:72:ed:ff:72:b6:cd:c0:52:33:17:65:
         a9:86:26:7b
-----BEGIN CERTIFICATE-----
MIIDfzCCAmegAwIBAgICEAIwDQYJKoZIhvcNAQELBQAwgYUxCzAJBgNVBAYTAlNH
MRIwEAYDVQQIDAlTaW5nYXBvcmUxEjAQBgNVBAcMCVNpbmdhcG9yZTENMAsGA1UE
CgwEU1VURDENMAsGA1UECwwEbGFiNDEUMBIGA1UEAwwLc3V0ZC5lZHUuc2cxGjAY
BgkqhkiG9w0BCQEWC3N1dGRAZWR1LnNnMB4XDTIxMDIyODAzMjE1NFoXDTIyMDIy
ODAzMjE1NFowgYUxCzAJBgNVBAYTAlNHMRIwEAYDVQQHDAlTaW5nYXBvcmUxEDAO
BgNVBAoMB3NlZWRwa2kxDTALBgNVBAsMBGxhYjQxGzAZBgNVBAMMElNFRURQS0lM
YWIyMDIwLmNvbTEkMCIGCSqGSIb3DQEJARYVU0VFRFBLSUxhYjIwMjBAZWR1LnNn
MIGfMA0GCSqGSIb3DQEBAQUAA4GNADCBiQKBgQDxNcpsj57wHsR/m+Ehgr0dTFIw
LvPodIRdCB+e3ZsqiKmRDNI1bA2oUcGV1+ie15Mt/tcHNgCQoMQAJ7s8iDyCcdLL
WrdMgE+wZKCvIykex9E19wTEE47xNEg9qj2O8ugljEKqDfmQh+CJhcdFf7WJ0lgn
pNIZmPdUKtCgZQFfKwIDAQABo3sweTAJBgNVHRMEAjAAMCwGCWCGSAGG+EIBDQQf
Fh1PcGVuU1NMIEdlbmVyYXRlZCBDZXJ0aWZpY2F0ZTAdBgNVHQ4EFgQU9sXXqNv0
tdgKtLa07k7c6gKuIrAwHwYDVR0jBBgwFoAUVgg7xfFxHFyRbwHK9A5Nf2AKX5cw
DQYJKoZIhvcNAQELBQADggEBAJisA9O1ZhLk7z8+PCZGstJ0bIXcU7+41BgBudJr
poS8X/e1rZyAnAfehJSt/RBevs4yi2pKr+CIpW7Om1cQmOLF8Th3jw4RzZjJrbG9
xj/yXsgm1v+RG9euyTB7Hfd98tfhG6GHbDmDFkvKIwF5e3ohE1hQyhAF8Q7PAtwB
ECZE50AV8NL9EZJWYN4+kYXs0K6+kJqep4BOlQo8ZlmuP9riSU7uo9iUUhOLR+p4
jBSj93XSj5TDSVmO7R3u2vVwcTofGK/HuJPsqALDGyFccAq4SYylOcGfNPmCzJ1u
HzQj/NQWNc6zbqbA+9HjuNJHclty7f9yts3AUjMXZamGJns=
-----END CERTIFICATE-----
